target datalayout = "e-m:e-p270:32:32-p271:32:32-p272:64:64-i64:64-i128:128-f80:128-n8:16:32:64-S128"
target triple = "x86_64-pc-linux-gnu"

%"class.std::shared_ptr.47" = type { %"class.std::__shared_ptr.48" }
%"class.std::__shared_ptr.48" = type { ptr, %"class.std::__shared_count" }
%"class.std::__shared_count" = type { ptr }
%"class.arrow::Status" = type { ptr }

@_ZZN5arrow8internal16GetCpuThreadPoolEvE9singleton = internal global %"class.std::shared_ptr.47" zeroinitializer, align 8
@_ZGVZN5arrow8internal16GetCpuThreadPoolEvE9singleton = internal global i64 0, align 8
@__dso_handle = external hidden global i8

; Function Attrs: mustprogress nounwind uwtable
define linkonce_odr noundef ptr @_ZNKSt12__shared_ptrIN5arrow8internal10ThreadPoolELN9__gnu_cxx12_Lock_policyE2EE3getEv(ptr noundef nonnull align 8 dereferenceable(16) %0) #0 comdat align 2 {
  %2 = alloca ptr, align 8
  store ptr %0, ptr %2, align 8, !tbaa !211
  %3 = load ptr, ptr %2, align 8
  %4 = getelementptr inbounds nuw %"class.std::__shared_ptr.48", ptr %3, i32 0, i32 0
  %5 = load ptr, ptr %4, align 8, !tbaa !222
  ret ptr %5
}

; Function Attrs: mustprogress uwtable
define noundef ptr @_ZN5arrow8internal16GetCpuThreadPoolEv() #2 personality ptr @__gxx_personality_v0 {
  %1 = alloca ptr, align 8
  %2 = alloca i32, align 4
  %3 = load atomic i8, ptr @_ZGVZN5arrow8internal16GetCpuThreadPoolEvE9singleton acquire, align 8
  %4 = icmp eq i8 %3, 0
  br i1 %4, label %5, label %11, !prof !221

5:                                                ; preds = %0
  %6 = call i32 @__cxa_guard_acquire(ptr @_ZGVZN5arrow8internal16GetCpuThreadPoolEvE9singleton) #15
  %7 = icmp ne i32 %6, 0
  br i1 %7, label %8, label %11

8:                                                ; preds = %5
  invoke void @_ZN5arrow8internal10ThreadPool17MakeCpuThreadPoolEv(ptr dead_on_unwind writable sret(%"class.std::shared_ptr.47") align 8 @_ZZN5arrow8internal16GetCpuThreadPoolEvE9singleton)
          to label %9 unwind label %13

9:                                                ; preds = %8
  %10 = call i32 @__cxa_atexit(ptr @_ZNSt12__shared_ptrIN5arrow8internal10ThreadPoolELN9__gnu_cxx12_Lock_policyE2EED2Ev, ptr @_ZZN5arrow8internal16GetCpuThreadPoolEvE9singleton, ptr @__dso_handle) #15
  call void @__cxa_guard_release(ptr @_ZGVZN5arrow8internal16GetCpuThreadPoolEvE9singleton) #15
  br label %11

11:                                               ; preds = %9, %5, %0
  %12 = call noundef ptr @_ZNKSt12__shared_ptrIN5arrow8internal10ThreadPoolELN9__gnu_cxx12_Lock_policyE2EE3getEv(ptr noundef nonnull align 8 dereferenceable(16) @_ZZN5arrow8internal16GetCpuThreadPoolEvE9singleton) #15
  ret ptr %12

13:                                               ; preds = %8
  %14 = landingpad { ptr, i32 }
          cleanup
  %15 = extractvalue { ptr, i32 } %14, 0
  store ptr %15, ptr %1, align 8
  %16 = extractvalue { ptr, i32 } %14, 1
  store i32 %16, ptr %2, align 4
  call void @__cxa_guard_abort(ptr @_ZGVZN5arrow8internal16GetCpuThreadPoolEvE9singleton) #15
  br label %17

17:                                               ; preds = %13
  %18 = load ptr, ptr %1, align 8
  %19 = load i32, ptr %2, align 4
  %20 = insertvalue { ptr, i32 } poison, ptr %18, 0
  %21 = insertvalue { ptr, i32 } %20, i32 %19, 1
  resume { ptr, i32 } %21
}

; Function Attrs: mustprogress uwtable
define void @_ZN5arrow24SetCpuThreadPoolCapacityEi(ptr dead_on_unwind noalias writable sret(%"class.arrow::Status") align 8 %0, i32 noundef %1) #2 {
  %3 = alloca ptr, align 8
  %4 = alloca i32, align 4
  store ptr %0, ptr %3, align 8
  store i32 %1, ptr %4, align 4, !tbaa !174
  %5 = call noundef ptr @_ZN5arrow8internal16GetCpuThreadPoolEv()
  %6 = load i32, ptr %4, align 4, !tbaa !174
  call void @_ZN5arrow8internal10ThreadPool11SetCapacityEi(ptr dead_on_unwind writable sret(%"class.arrow::Status") align 8 %0, ptr noundef nonnull align 8 dereferenceable(33) %5, i32 noundef %6)
  ret void
}