; Function Attrs: mustprogress uwtable
define void @_ZN5arrow24SetCpuThreadPoolCapacityEi(ptr dead_on_unwind noalias writable sret(%"class.arrow::Status") align 8 %0, i32 noundef %1) local_unnamed_addr #3 personality ptr @__gxx_personality_v0 {
  %3 = load atomic i8, ptr @_ZGVZN5arrow8internal16GetCpuThreadPoolEvE9singleton acquire, align 8
  %4 = icmp eq i8 %3, 0
  br i1 %4, label %5, label %_ZN5arrow8internal16GetCpuThreadPoolEv.exit, !prof !240

5:                                                ; preds = %2
  %6 = tail call i32 @__cxa_guard_acquire(ptr nonnull @_ZGVZN5arrow8internal16GetCpuThreadPoolEvE9singleton) #33
  %.not.i = icmp eq i32 %6, 0
  br i1 %.not.i, label %_ZN5arrow8internal16GetCpuThreadPoolEv.exit, label %7

7:                                                ; preds = %5
  invoke void @_ZN5arrow8internal10ThreadPool17MakeCpuThreadPoolEv(ptr dead_on_unwind nonnull writable sret(%"class.std::shared_ptr.47") align 8 @_ZZN5arrow8internal16GetCpuThreadPoolEvE9singleton)
          to label %8 unwind label %10

8:                                                ; preds = %7
  %9 = tail call i32 @__cxa_atexit(ptr nonnull @_ZNSt12__shared_ptrIN5arrow8internal10ThreadPoolELN9__gnu_cxx12_Lock_policyE2EED2Ev, ptr nonnull @_ZZN5arrow8internal16GetCpuThreadPoolEvE9singleton, ptr nonnull @__dso_handle) #33
  tail call void @__cxa_guard_release(ptr nonnull @_ZGVZN5arrow8internal16GetCpuThreadPoolEvE9singleton) #33
  br label %_ZN5arrow8internal16GetCpuThreadPoolEv.exit

10:                                               ; preds = %7
  %11 = landingpad { ptr, i32 }
          cleanup
  tail call void @__cxa_guard_abort(ptr nonnull @_ZGVZN5arrow8internal16GetCpuThreadPoolEvE9singleton) #33
  resume { ptr, i32 } %11

_ZN5arrow8internal16GetCpuThreadPoolEv.exit:      ; preds = %2, %5, %8
  %12 = load ptr, ptr @_ZZN5arrow8internal16GetCpuThreadPoolEvE9singleton, align 8, !tbaa !199
  tail call void @_ZN5arrow8internal10ThreadPool11SetCapacityEi(ptr dead_on_unwind writable sret(%"class.arrow::Status") align 8 %0, ptr noundef nonnull align 8 dereferenceable(33) %12, i32 noundef %1)
  ret void
}